target datalayout = "e-m:e-p270:32:32-p271:32:32-p272:64:64-i64:64-i128:128-f80:128-n8:16:32:64-S128"
target triple = "x86_64-pc-linux-gnu"

; Function Attrs: nounwind uwtable
define internal i32 @Map_MappingExpandTruth_rec(i32 noundef %0, i32 noundef %1) #0 {
  %3 = alloca i32, align 4
  %4 = alloca i32, align 4
  %5 = alloca i32, align 4
  store i32 %0, ptr %4, align 4, !tbaa !10
  store i32 %1, ptr %5, align 4, !tbaa !10
  %6 = load i32, ptr %5, align 4, !tbaa !10
  %7 = icmp eq i32 %6, 5
  br i1 %7, label %8, label %10

8:                                                ; preds = %2
  %9 = load i32, ptr %4, align 4, !tbaa !10
  store i32 %9, ptr %3, align 4
  br label %20

10:                                               ; preds = %2
  %11 = load i32, ptr %4, align 4, !tbaa !10
  %12 = load i32, ptr %4, align 4, !tbaa !10
  %13 = load i32, ptr %5, align 4, !tbaa !10
  %14 = shl i32 1, %13
  %15 = shl i32 %12, %14
  %16 = or i32 %11, %15
  %17 = load i32, ptr %5, align 4, !tbaa !10
  %18 = add nsw i32 %17, 1
  %19 = call i32 @Map_MappingExpandTruth_rec(i32 noundef %16, i32 noundef %18)
  store i32 %19, ptr %3, align 4
  br label %20

20:                                               ; preds = %10, %8
  %21 = load i32, ptr %3, align 4
  ret i32 %21
}

; Function Attrs: nounwind uwtable
define void @Map_MappingExpandTruth(ptr noundef %0, i32 noundef %1) #0 {
  %3 = alloca ptr, align 8
  %4 = alloca i32, align 4
  store ptr %0, ptr %3, align 8, !tbaa !50
  store i32 %1, ptr %4, align 4, !tbaa !10
  %5 = load i32, ptr %4, align 4, !tbaa !10
  %6 = icmp eq i32 %5, 6
  br i1 %6, label %7, label %8

7:                                                ; preds = %2
  br label %33

8:                                                ; preds = %2
  %9 = load i32, ptr %4, align 4, !tbaa !10
  %10 = icmp slt i32 %9, 5
  br i1 %10, label %11, label %27

11:                                               ; preds = %8
  %12 = load i32, ptr %4, align 4, !tbaa !10
  %13 = shl i32 1, %12
  %14 = sub nsw i32 32, %13
  %15 = lshr i32 -1, %14
  %16 = load ptr, ptr %3, align 8, !tbaa !50
  %17 = getelementptr inbounds i32, ptr %16, i64 0
  %18 = load i32, ptr %17, align 4, !tbaa !10
  %19 = and i32 %18, %15
  store i32 %19, ptr %17, align 4, !tbaa !10
  %20 = load ptr, ptr %3, align 8, !tbaa !50
  %21 = getelementptr inbounds i32, ptr %20, i64 0
  %22 = load i32, ptr %21, align 4, !tbaa !10
  %23 = load i32, ptr %4, align 4, !tbaa !10
  %24 = call i32 @Map_MappingExpandTruth_rec(i32 noundef %22, i32 noundef %23)
  %25 = load ptr, ptr %3, align 8, !tbaa !50
  %26 = getelementptr inbounds i32, ptr %25, i64 0
  store i32 %24, ptr %26, align 4, !tbaa !10
  br label %27

27:                                               ; preds = %11, %8
  %28 = load ptr, ptr %3, align 8, !tbaa !50
  %29 = getelementptr inbounds i32, ptr %28, i64 0
  %30 = load i32, ptr %29, align 4, !tbaa !10
  %31 = load ptr, ptr %3, align 8, !tbaa !50
  %32 = getelementptr inbounds i32, ptr %31, i64 1
  store i32 %30, ptr %32, align 4, !tbaa !10
  br label %33

33:                                               ; preds = %27, %7
  ret void
}