; Function Attrs: nofree norecurse nosync nounwind memory(argmem: readwrite) uwtable
define void @Map_MappingExpandTruth(ptr noundef captures(none) %0, i32 noundef %1) local_unnamed_addr #6 {
  %3 = icmp eq i32 %1, 6
  br i1 %3, label %18, label %4

4:                                                ; preds = %2
  %5 = icmp slt i32 %1, 5
  %.pre = load i32, ptr %0, align 4, !tbaa !39
  br i1 %5, label %6, label %15

6:                                                ; preds = %4
  %.neg = shl nsw i32 -1, %1
  %7 = add nsw i32 %.neg, 32
  %8 = lshr i32 -1, %7
  %9 = and i32 %.pre, %8
  br label %tailrecurse.i

tailrecurse.i:                                    ; preds = %6, %tailrecurse.i
  %.tr810.i = phi i32 [ %13, %tailrecurse.i ], [ %1, %6 ]
  %.tr9.i = phi i32 [ %12, %tailrecurse.i ], [ %9, %6 ]
  %10 = shl nuw nsw i32 1, %.tr810.i
  %11 = shl i32 %.tr9.i, %10
  %12 = or i32 %11, %.tr9.i
  %13 = add nsw i32 %.tr810.i, 1
  %14 = icmp eq i32 %13, 5
  br i1 %14, label %Map_MappingExpandTruth_rec.exit, label %tailrecurse.i

Map_MappingExpandTruth_rec.exit:                  ; preds = %tailrecurse.i
  store i32 %12, ptr %0, align 4, !tbaa !39
  br label %15

15:                                               ; preds = %Map_MappingExpandTruth_rec.exit, %4
  %16 = phi i32 [ %12, %Map_MappingExpandTruth_rec.exit ], [ %.pre, %4 ]
  %17 = getelementptr inbounds nuw i8, ptr %0, i64 4
  store i32 %16, ptr %17, align 4, !tbaa !39
  br label %18

18:                                               ; preds = %2, %15
  ret void
}